target datalayout = "e-m:e-p270:32:32-p271:32:32-p272:64:64-i64:64-i128:128-f80:128-n8:16:32:64-S128"
target triple = "x86_64-pc-linux-gnu"

%"struct.std::array.2" = type { [4 x i64] }
%"class.arrow::GenericBasicDecimal.1" = type { %"struct.std::array.2" }
%"struct.arrow::bit_util::little_endian::detail::Writer" = type { ptr }
%"class.arrow::BasicDecimal256" = type { %"class.arrow::GenericBasicDecimal.1" }
%"struct.arrow::bit_util::little_endian::detail::Reader" = type { ptr }

; Function Attrs: mustprogress nounwind uwtable
define linkonce_odr noundef ptr @_ZNSt14__array_traitsImLm4EE6_S_ptrERA4_Km(ptr noundef nonnull align 8 dereferenceable(32) %0) #0 comdat align 2 {
  %2 = alloca ptr, align 8
  store ptr %0, ptr %2, align 8, !tbaa !239
  %3 = load ptr, ptr %2, align 8, !tbaa !239
  %4 = getelementptr inbounds [4 x i64], ptr %3, i64 0, i64 0
  ret ptr %4
}

; Function Attrs: mustprogress nounwind willreturn memory(none) uwtable
define linkonce_odr noundef ptr @_ZNSt5arrayImLm4EE4dataEv(ptr noundef nonnull align 8 dereferenceable(32) %0) #5 comdat align 2 {
  %2 = alloca ptr, align 8
  store ptr %0, ptr %2, align 8, !tbaa !20
  %3 = load ptr, ptr %2, align 8
  %4 = getelementptr inbounds nuw %"struct.std::array.2", ptr %3, i32 0, i32 0
  %5 = call noundef ptr @_ZNSt14__array_traitsImLm4EE6_S_ptrERA4_Km(ptr noundef nonnull align 8 dereferenceable(32) %4) #12
  ret ptr %5
}

; Function Attrs: mustprogress nounwind uwtable
define linkonce_odr noundef nonnull align 8 dereferenceable(8) ptr @_ZNSt14__array_traitsImLm4EE6_S_refERA4_Kmm(ptr noundef nonnull align 8 dereferenceable(32) %0, i64 noundef %1) #0 comdat align 2 {
  %3 = alloca ptr, align 8
  %4 = alloca i64, align 8
  store ptr %0, ptr %3, align 8, !tbaa !239
  store i64 %1, ptr %4, align 8, !tbaa !8
  %5 = load ptr, ptr %3, align 8, !tbaa !239
  %6 = load i64, ptr %4, align 8, !tbaa !8
  %7 = getelementptr inbounds nuw [4 x i64], ptr %5, i64 0, i64 %6
  ret ptr %7
}

; Function Attrs: mustprogress nounwind willreturn memory(none) uwtable
define linkonce_odr noundef ptr @_ZNSt5arrayImLm4EE3endEv(ptr noundef nonnull align 8 dereferenceable(32) %0) #5 comdat align 2 {
  %2 = alloca ptr, align 8
  store ptr %0, ptr %2, align 8, !tbaa !20
  %3 = load ptr, ptr %2, align 8
  %4 = call noundef ptr @_ZNSt5arrayImLm4EE4dataEv(ptr noundef nonnull align 8 dereferenceable(32) %3) #14
  %5 = getelementptr inbounds nuw i64, ptr %4, i64 4
  ret ptr %5
}

; Function Attrs: mustprogress nounwind willreturn memory(none) uwtable
define linkonce_odr noundef ptr @_ZNSt5arrayImLm4EE5beginEv(ptr noundef nonnull align 8 dereferenceable(32) %0) #5 comdat align 2 {
  %2 = alloca ptr, align 8
  store ptr %0, ptr %2, align 8, !tbaa !20
  %3 = load ptr, ptr %2, align 8
  %4 = call noundef ptr @_ZNSt5arrayImLm4EE4dataEv(ptr noundef nonnull align 8 dereferenceable(32) %3) #14
  ret ptr %4
}

; Function Attrs: mustprogress nounwind uwtable
define linkonce_odr noundef nonnull align 8 dereferenceable(8) ptr @_ZNSt5arrayImLm4EEixEm(ptr noundef nonnull align 8 dereferenceable(32) %0, i64 noundef %1) #0 comdat align 2 {
  %3 = alloca ptr, align 8
  %4 = alloca i64, align 8
  store ptr %0, ptr %3, align 8, !tbaa !20
  store i64 %1, ptr %4, align 8, !tbaa !8
  %5 = load ptr, ptr %3, align 8
  %6 = getelementptr inbounds nuw %"struct.std::array.2", ptr %5, i32 0, i32 0
  %7 = load i64, ptr %4, align 8, !tbaa !8
  %8 = call noundef nonnull align 8 dereferenceable(8) ptr @_ZNSt14__array_traitsImLm4EE6_S_refERA4_Kmm(ptr noundef nonnull align 8 dereferenceable(32) %6, i64 noundef %7) #12
  ret ptr %8
}

; Function Attrs: mustprogress nounwind uwtable
define linkonce_odr void @_ZN5arrow8bit_util13little_endian6detail6WriterImLm4EEC2EPSt5arrayImLm4EE(ptr noundef nonnull align 8 dereferenceable(8) %0, ptr noundef %1) unnamed_addr #0 comdat align 2 {
  %3 = alloca ptr, align 8
  %4 = alloca ptr, align 8
  store ptr %0, ptr %3, align 8, !tbaa !242
  store ptr %1, ptr %4, align 8, !tbaa !20
  %5 = load ptr, ptr %3, align 8
  %6 = getelementptr inbounds nuw %"struct.arrow::bit_util::little_endian::detail::Writer", ptr %5, i32 0, i32 0
  %7 = load ptr, ptr %4, align 8, !tbaa !20
  store ptr %7, ptr %6, align 8, !tbaa !244
  ret void
}

; Function Attrs: mustprogress nounwind uwtable
define linkonce_odr noundef nonnull align 8 dereferenceable(8) ptr @_ZNKSt5arrayImLm4EEixEm(ptr noundef nonnull align 8 dereferenceable(32) %0, i64 noundef %1) #0 comdat align 2 {
  %3 = alloca ptr, align 8
  %4 = alloca i64, align 8
  store ptr %0, ptr %3, align 8, !tbaa !20
  store i64 %1, ptr %4, align 8, !tbaa !8
  %5 = load ptr, ptr %3, align 8
  %6 = getelementptr inbounds nuw %"struct.std::array.2", ptr %5, i32 0, i32 0
  %7 = load i64, ptr %4, align 8, !tbaa !8
  %8 = call noundef nonnull align 8 dereferenceable(8) ptr @_ZNSt14__array_traitsImLm4EE6_S_refERA4_Kmm(ptr noundef nonnull align 8 dereferenceable(32) %6, i64 noundef %7) #12
  ret ptr %8
}

; Function Attrs: mustprogress nounwind uwtable
define linkonce_odr void @_ZN5arrow8bit_util13little_endian6detail6ReaderImLm4EEC2ERKSt5arrayImLm4EE(ptr noundef nonnull align 8 dereferenceable(8) %0, ptr noundef nonnull align 8 dereferenceable(32) %1) unnamed_addr #0 comdat align 2 {
  %3 = alloca ptr, align 8
  %4 = alloca ptr, align 8
  store ptr %0, ptr %3, align 8, !tbaa !247
  store ptr %1, ptr %4, align 8, !tbaa !20
  %5 = load ptr, ptr %3, align 8
  %6 = getelementptr inbounds nuw %"struct.arrow::bit_util::little_endian::detail::Reader", ptr %5, i32 0, i32 0
  %7 = load ptr, ptr %4, align 8, !tbaa !20
  store ptr %7, ptr %6, align 8, !tbaa !20
  ret void
}

; Function Attrs: noinline noreturn nounwind uwtable
define linkonce_odr hidden void @__clang_call_terminate(ptr noundef %0) #4 comdat {
  %2 = call ptr @__cxa_begin_catch(ptr %0) #12
  call void @_ZSt9terminatev() #13
  unreachable
}

; Function Attrs: mustprogress nounwind uwtable
define linkonce_odr void @_ZN5arrow19GenericBasicDecimalINS_15BasicDecimal256ELi256ELi4EE16WordsFromLowBitsIiEESt5arrayImLm4EET_(ptr dead_on_unwind noalias writable sret(%"struct.std::array.2") align 8 %0, i32 noundef %1) #0 comdat align 2 {
  %3 = alloca i32, align 4
  %4 = alloca ptr, align 8
  %5 = alloca ptr, align 8
  %6 = alloca ptr, align 8
  %7 = alloca ptr, align 8
  store i32 %1, ptr %3, align 4, !tbaa !30
  call void @llvm.memset.p0.i64(ptr align 8 %0, i8 0, i64 32, i1 false)
  %8 = load i32, ptr %3, align 4, !tbaa !30
  %9 = icmp slt i32 %8, 0
  br i1 %9, label %10, label %27

10:                                               ; preds = %2
  call void @llvm.lifetime.start.p0(i64 8, ptr %4) #12
  store ptr %0, ptr %4, align 8, !tbaa !20
  call void @llvm.lifetime.start.p0(i64 8, ptr %5) #12
  %11 = load ptr, ptr %4, align 8, !tbaa !20
  %12 = call noundef ptr @_ZNSt5arrayImLm4EE5beginEv(ptr noundef nonnull align 8 dereferenceable(32) %11) #14
  store ptr %12, ptr %5, align 8, !tbaa !239
  call void @llvm.lifetime.start.p0(i64 8, ptr %6) #12
  %13 = load ptr, ptr %4, align 8, !tbaa !20
  %14 = call noundef ptr @_ZNSt5arrayImLm4EE3endEv(ptr noundef nonnull align 8 dereferenceable(32) %13) #14
  store ptr %14, ptr %6, align 8, !tbaa !239
  br label %15

15:                                               ; preds = %23, %10
  %16 = load ptr, ptr %5, align 8, !tbaa !239
  %17 = load ptr, ptr %6, align 8, !tbaa !239
  %18 = icmp ne ptr %16, %17
  br i1 %18, label %20, label %19

19:                                               ; preds = %15
  call void @llvm.lifetime.end.p0(i64 8, ptr %6) #12
  call void @llvm.lifetime.end.p0(i64 8, ptr %5) #12
  call void @llvm.lifetime.end.p0(i64 8, ptr %4) #12
  br label %26

20:                                               ; preds = %15
  call void @llvm.lifetime.start.p0(i64 8, ptr %7) #12
  %21 = load ptr, ptr %5, align 8, !tbaa !239
  store ptr %21, ptr %7, align 8, !tbaa !239
  %22 = load ptr, ptr %7, align 8, !tbaa !239
  store i64 -1, ptr %22, align 8, !tbaa !8
  call void @llvm.lifetime.end.p0(i64 8, ptr %7) #12
  br label %23

23:                                               ; preds = %20
  %24 = load ptr, ptr %5, align 8, !tbaa !239
  %25 = getelementptr inbounds nuw i64, ptr %24, i32 1
  store ptr %25, ptr %5, align 8, !tbaa !239
  br label %15

26:                                               ; preds = %19
  br label %27

27:                                               ; preds = %26, %2
  %28 = load i32, ptr %3, align 4, !tbaa !30
  %29 = sext i32 %28 to i64
  %30 = call noundef nonnull align 8 dereferenceable(8) ptr @_ZNSt5arrayImLm4EEixEm(ptr noundef nonnull align 8 dereferenceable(32) %0, i64 noundef 0) #12
  store i64 %29, ptr %30, align 8, !tbaa !8
  ret void
}

; Function Attrs: mustprogress nounwind uwtable
define linkonce_odr noundef nonnull align 8 dereferenceable(8) ptr @_ZN5arrow8bit_util13little_endian6detail6WriterImLm4EEixEm(ptr noundef nonnull align 8 dereferenceable(8) %0, i64 noundef %1) #0 comdat align 2 {
  %3 = alloca ptr, align 8
  %4 = alloca i64, align 8
  store ptr %0, ptr %3, align 8, !tbaa !242
  store i64 %1, ptr %4, align 8, !tbaa !8
  %5 = load ptr, ptr %3, align 8
  %6 = getelementptr inbounds nuw %"struct.arrow::bit_util::little_endian::detail::Writer", ptr %5, i32 0, i32 0
  %7 = load ptr, ptr %6, align 8, !tbaa !244
  %8 = load i64, ptr %4, align 8, !tbaa !8
  %9 = call noundef nonnull align 8 dereferenceable(8) ptr @_ZNSt5arrayImLm4EEixEm(ptr noundef nonnull align 8 dereferenceable(32) %7, i64 noundef %8) #12
  ret ptr %9
}

; Function Attrs: mustprogress nounwind willreturn memory(none) uwtable
define linkonce_odr noundef i64 @_ZNKSt5arrayImLm4EE4sizeEv(ptr noundef nonnull align 8 dereferenceable(32) %0) #5 comdat align 2 {
  %2 = alloca ptr, align 8
  store ptr %0, ptr %2, align 8, !tbaa !20
  ret i64 4
}

; Function Attrs: inlinehint mustprogress uwtable
define internal ptr @_ZN5arrow8bit_util13little_endianL4MakeImLm4EEENS1_6detail6WriterIT_XT0_EEEPSt5arrayIS5_XT0_EE(ptr noundef %0) #8 {
  %2 = alloca %"struct.arrow::bit_util::little_endian::detail::Writer", align 8
  %3 = alloca ptr, align 8
  store ptr %0, ptr %3, align 8, !tbaa !20
  %4 = load ptr, ptr %3, align 8, !tbaa !20
  call void @_ZN5arrow8bit_util13little_endian6detail6WriterImLm4EEC2EPSt5arrayImLm4EE(ptr noundef nonnull align 8 dereferenceable(8) %2, ptr noundef %4)
  %5 = getelementptr inbounds nuw %"struct.arrow::bit_util::little_endian::detail::Writer", ptr %2, i32 0, i32 0
  %6 = load ptr, ptr %5, align 8
  ret ptr %6
}

; Function Attrs: mustprogress nounwind uwtable
define linkonce_odr noundef nonnull align 8 dereferenceable(8) ptr @_ZNK5arrow8bit_util13little_endian6detail6ReaderImLm4EEixEm(ptr noundef nonnull align 8 dereferenceable(8) %0, i64 noundef %1) #0 comdat align 2 {
  %3 = alloca ptr, align 8
  %4 = alloca i64, align 8
  store ptr %0, ptr %3, align 8, !tbaa !247
  store i64 %1, ptr %4, align 8, !tbaa !8
  %5 = load ptr, ptr %3, align 8
  %6 = getelementptr inbounds nuw %"struct.arrow::bit_util::little_endian::detail::Reader", ptr %5, i32 0, i32 0
  %7 = load ptr, ptr %6, align 8, !tbaa !249
  %8 = load i64, ptr %4, align 8, !tbaa !8
  %9 = call noundef nonnull align 8 dereferenceable(8) ptr @_ZNKSt5arrayImLm4EEixEm(ptr noundef nonnull align 8 dereferenceable(32) %7, i64 noundef %8) #12
  ret ptr %9
}

; Function Attrs: inlinehint mustprogress uwtable
define internal ptr @_ZN5arrow8bit_util13little_endianL4MakeImLm4EEENS1_6detail6ReaderIT_XT0_EEERKSt5arrayIS5_XT0_EE(ptr noundef nonnull align 8 dereferenceable(32) %0) #8 {
  %2 = alloca %"struct.arrow::bit_util::little_endian::detail::Reader", align 8
  %3 = alloca ptr, align 8
  store ptr %0, ptr %3, align 8, !tbaa !20
  %4 = load ptr, ptr %3, align 8, !tbaa !20
  call void @_ZN5arrow8bit_util13little_endian6detail6ReaderImLm4EEC2ERKSt5arrayImLm4EE(ptr noundef nonnull align 8 dereferenceable(8) %2, ptr noundef nonnull align 8 dereferenceable(32) %4)
  %5 = getelementptr inbounds nuw %"struct.arrow::bit_util::little_endian::detail::Reader", ptr %2, i32 0, i32 0
  %6 = load ptr, ptr %5, align 8
  ret ptr %6
}

; Function Attrs: mustprogress nounwind uwtable
define weak_odr noundef nonnull align 8 dereferenceable(32) ptr @_ZNK5arrow19GenericBasicDecimalINS_15BasicDecimal256ELi256ELi4EE19native_endian_arrayEv(ptr noundef nonnull align 8 dereferenceable(32) %0) #0 comdat align 2 {
  %2 = alloca ptr, align 8
  store ptr %0, ptr %2, align 8, !tbaa !18
  %3 = load ptr, ptr %2, align 8
  %4 = getelementptr inbounds nuw %"class.arrow::GenericBasicDecimal.1", ptr %3, i32 0, i32 0
  ret ptr %4
}

; Function Attrs: mustprogress nounwind uwtable
define linkonce_odr void @_ZN5arrow19GenericBasicDecimalINS_15BasicDecimal256ELi256ELi4EEC2IiiEET_(ptr noundef nonnull align 8 dereferenceable(32) %0, i32 noundef %1) unnamed_addr #0 comdat align 2 personality ptr @__gxx_personality_v0 {
  %3 = alloca ptr, align 8
  %4 = alloca i32, align 4
  store ptr %0, ptr %3, align 8, !tbaa !18
  store i32 %1, ptr %4, align 4, !tbaa !30
  %5 = load ptr, ptr %3, align 8
  %6 = load i32, ptr %4, align 4, !tbaa !30
  invoke void @_ZN5arrow19GenericBasicDecimalINS_15BasicDecimal256ELi256ELi4EE16WordsFromLowBitsIiEESt5arrayImLm4EET_(ptr dead_on_unwind writable sret(%"struct.std::array.2") align 8 %5, i32 noundef %6)
          to label %7 unwind label %8

7:                                                ; preds = %2
  ret void

8:                                                ; preds = %2
  %9 = landingpad { ptr, i32 }
          catch ptr null
  %10 = extractvalue { ptr, i32 } %9, 0
  call void @__clang_call_terminate(ptr %10) #13
  unreachable
}

; Function Attrs: mustprogress uwtable
define noundef nonnull align 8 dereferenceable(32) ptr @_ZN5arrow15BasicDecimal2566NegateEv(ptr noundef nonnull align 8 dereferenceable(32) %0) #6 align 2 {
  %2 = alloca ptr, align 8
  %3 = alloca %"struct.arrow::bit_util::little_endian::detail::Writer", align 8
  %4 = alloca i64, align 8
  %5 = alloca i64, align 8
  %6 = alloca ptr, align 8
  store ptr %0, ptr %2, align 8, !tbaa !237
  %7 = load ptr, ptr %2, align 8
  call void @llvm.lifetime.start.p0(i64 8, ptr %3) #12
  %8 = getelementptr inbounds nuw %"class.arrow::GenericBasicDecimal.1", ptr %7, i32 0, i32 0
  %9 = call ptr @_ZN5arrow8bit_util13little_endianL4MakeImLm4EEENS1_6detail6WriterIT_XT0_EEEPSt5arrayIS5_XT0_EE(ptr noundef %8)
  %10 = getelementptr inbounds nuw %"struct.arrow::bit_util::little_endian::detail::Writer", ptr %3, i32 0, i32 0
  store ptr %9, ptr %10, align 8
  call void @llvm.lifetime.start.p0(i64 8, ptr %4) #12
  store i64 1, ptr %4, align 8, !tbaa !8
  call void @llvm.lifetime.start.p0(i64 8, ptr %5) #12
  store i64 0, ptr %5, align 8, !tbaa !8
  br label %11

11:                                               ; preds = %32, %1
  %12 = load i64, ptr %5, align 8, !tbaa !8
  %13 = getelementptr inbounds nuw %"class.arrow::GenericBasicDecimal.1", ptr %7, i32 0, i32 0
  %14 = call noundef i64 @_ZNKSt5arrayImLm4EE4sizeEv(ptr noundef nonnull align 8 dereferenceable(32) %13) #14
  %15 = icmp ult i64 %12, %14
  br i1 %15, label %17, label %16

16:                                               ; preds = %11
  call void @llvm.lifetime.end.p0(i64 8, ptr %5) #12
  br label %35

17:                                               ; preds = %11
  call void @llvm.lifetime.start.p0(i64 8, ptr %6) #12
  %18 = load i64, ptr %5, align 8, !tbaa !8
  %19 = call noundef nonnull align 8 dereferenceable(8) ptr @_ZN5arrow8bit_util13little_endian6detail6WriterImLm4EEixEm(ptr noundef nonnull align 8 dereferenceable(8) %3, i64 noundef %18)
  store ptr %19, ptr %6, align 8, !tbaa !239
  %20 = load ptr, ptr %6, align 8, !tbaa !239
  %21 = load i64, ptr %20, align 8, !tbaa !8
  %22 = xor i64 %21, -1
  %23 = load i64, ptr %4, align 8, !tbaa !8
  %24 = add i64 %22, %23
  %25 = load ptr, ptr %6, align 8, !tbaa !239
  store i64 %24, ptr %25, align 8, !tbaa !8
  %26 = load ptr, ptr %6, align 8, !tbaa !239
  %27 = load i64, ptr %26, align 8, !tbaa !8
  %28 = icmp eq i64 %27, 0
  %29 = zext i1 %28 to i64
  %30 = load i64, ptr %4, align 8, !tbaa !8
  %31 = and i64 %30, %29
  store i64 %31, ptr %4, align 8, !tbaa !8
  call void @llvm.lifetime.end.p0(i64 8, ptr %6) #12
  br label %32

32:                                               ; preds = %17
  %33 = load i64, ptr %5, align 8, !tbaa !8
  %34 = add i64 %33, 1
  store i64 %34, ptr %5, align 8, !tbaa !8
  br label %11, !llvm.loop !241

35:                                               ; preds = %16
  call void @llvm.lifetime.end.p0(i64 8, ptr %4) #12
  call void @llvm.lifetime.end.p0(i64 8, ptr %3) #12
  ret ptr %7
}

; Function Attrs: mustprogress uwtable
define noundef zeroext i1 @_ZN5arrowltERKNS_15BasicDecimal256ES2_(ptr noundef nonnull align 8 dereferenceable(32) %0, ptr noundef nonnull align 8 dereferenceable(32) %1) #6 {
  %3 = alloca ptr, align 8
  %4 = alloca ptr, align 8
  %5 = alloca %"struct.arrow::bit_util::little_endian::detail::Reader", align 8
  %6 = alloca %"struct.arrow::bit_util::little_endian::detail::Reader", align 8
  store ptr %0, ptr %3, align 8, !tbaa !237
  store ptr %1, ptr %4, align 8, !tbaa !237
  call void @llvm.lifetime.start.p0(i64 8, ptr %5) #12
  %7 = load ptr, ptr %3, align 8, !tbaa !237
  %8 = call noundef nonnull align 8 dereferenceable(32) ptr @_ZNK5arrow19GenericBasicDecimalINS_15BasicDecimal256ELi256ELi4EE19native_endian_arrayEv(ptr noundef nonnull align 8 dereferenceable(32) %7)
  %9 = call ptr @_ZN5arrow8bit_util13little_endianL4MakeImLm4EEENS1_6detail6ReaderIT_XT0_EEERKSt5arrayIS5_XT0_EE(ptr noundef nonnull align 8 dereferenceable(32) %8)
  %10 = getelementptr inbounds nuw %"struct.arrow::bit_util::little_endian::detail::Reader", ptr %5, i32 0, i32 0
  store ptr %9, ptr %10, align 8
  call void @llvm.lifetime.start.p0(i64 8, ptr %6) #12
  %11 = load ptr, ptr %4, align 8, !tbaa !237
  %12 = call noundef nonnull align 8 dereferenceable(32) ptr @_ZNK5arrow19GenericBasicDecimalINS_15BasicDecimal256ELi256ELi4EE19native_endian_arrayEv(ptr noundef nonnull align 8 dereferenceable(32) %11)
  %13 = call ptr @_ZN5arrow8bit_util13little_endianL4MakeImLm4EEENS1_6detail6ReaderIT_XT0_EEERKSt5arrayIS5_XT0_EE(ptr noundef nonnull align 8 dereferenceable(32) %12)
  %14 = getelementptr inbounds nuw %"struct.arrow::bit_util::little_endian::detail::Reader", ptr %6, i32 0, i32 0
  store ptr %13, ptr %14, align 8
  %15 = call noundef nonnull align 8 dereferenceable(8) ptr @_ZNK5arrow8bit_util13little_endian6detail6ReaderImLm4EEixEm(ptr noundef nonnull align 8 dereferenceable(8) %5, i64 noundef 3)
  %16 = load i64, ptr %15, align 8, !tbaa !8
  %17 = call noundef nonnull align 8 dereferenceable(8) ptr @_ZNK5arrow8bit_util13little_endian6detail6ReaderImLm4EEixEm(ptr noundef nonnull align 8 dereferenceable(8) %6, i64 noundef 3)
  %18 = load i64, ptr %17, align 8, !tbaa !8
  %19 = icmp ne i64 %16, %18
  br i1 %19, label %20, label %26

20:                                               ; preds = %2
  %21 = call noundef nonnull align 8 dereferenceable(8) ptr @_ZNK5arrow8bit_util13little_endian6detail6ReaderImLm4EEixEm(ptr noundef nonnull align 8 dereferenceable(8) %5, i64 noundef 3)
  %22 = load i64, ptr %21, align 8, !tbaa !8
  %23 = call noundef nonnull align 8 dereferenceable(8) ptr @_ZNK5arrow8bit_util13little_endian6detail6ReaderImLm4EEixEm(ptr noundef nonnull align 8 dereferenceable(8) %6, i64 noundef 3)
  %24 = load i64, ptr %23, align 8, !tbaa !8
  %25 = icmp slt i64 %22, %24
  br label %60

26:                                               ; preds = %2
  %27 = call noundef nonnull align 8 dereferenceable(8) ptr @_ZNK5arrow8bit_util13little_endian6detail6ReaderImLm4EEixEm(ptr noundef nonnull align 8 dereferenceable(8) %5, i64 noundef 2)
  %28 = load i64, ptr %27, align 8, !tbaa !8
  %29 = call noundef nonnull align 8 dereferenceable(8) ptr @_ZNK5arrow8bit_util13little_endian6detail6ReaderImLm4EEixEm(ptr noundef nonnull align 8 dereferenceable(8) %6, i64 noundef 2)
  %30 = load i64, ptr %29, align 8, !tbaa !8
  %31 = icmp ne i64 %28, %30
  br i1 %31, label %32, label %38

32:                                               ; preds = %26
  %33 = call noundef nonnull align 8 dereferenceable(8) ptr @_ZNK5arrow8bit_util13little_endian6detail6ReaderImLm4EEixEm(ptr noundef nonnull align 8 dereferenceable(8) %5, i64 noundef 2)
  %34 = load i64, ptr %33, align 8, !tbaa !8
  %35 = call noundef nonnull align 8 dereferenceable(8) ptr @_ZNK5arrow8bit_util13little_endian6detail6ReaderImLm4EEixEm(ptr noundef nonnull align 8 dereferenceable(8) %6, i64 noundef 2)
  %36 = load i64, ptr %35, align 8, !tbaa !8
  %37 = icmp ult i64 %34, %36
  br label %58

38:                                               ; preds = %26
  %39 = call noundef nonnull align 8 dereferenceable(8) ptr @_ZNK5arrow8bit_util13little_endian6detail6ReaderImLm4EEixEm(ptr noundef nonnull align 8 dereferenceable(8) %5, i64 noundef 1)
  %40 = load i64, ptr %39, align 8, !tbaa !8
  %41 = call noundef nonnull align 8 dereferenceable(8) ptr @_ZNK5arrow8bit_util13little_endian6detail6ReaderImLm4EEixEm(ptr noundef nonnull align 8 dereferenceable(8) %6, i64 noundef 1)
  %42 = load i64, ptr %41, align 8, !tbaa !8
  %43 = icmp ne i64 %40, %42
  br i1 %43, label %44, label %50

44:                                               ; preds = %38
  %45 = call noundef nonnull align 8 dereferenceable(8) ptr @_ZNK5arrow8bit_util13little_endian6detail6ReaderImLm4EEixEm(ptr noundef nonnull align 8 dereferenceable(8) %5, i64 noundef 1)
  %46 = load i64, ptr %45, align 8, !tbaa !8
  %47 = call noundef nonnull align 8 dereferenceable(8) ptr @_ZNK5arrow8bit_util13little_endian6detail6ReaderImLm4EEixEm(ptr noundef nonnull align 8 dereferenceable(8) %6, i64 noundef 1)
  %48 = load i64, ptr %47, align 8, !tbaa !8
  %49 = icmp ult i64 %46, %48
  br label %56

50:                                               ; preds = %38
  %51 = call noundef nonnull align 8 dereferenceable(8) ptr @_ZNK5arrow8bit_util13little_endian6detail6ReaderImLm4EEixEm(ptr noundef nonnull align 8 dereferenceable(8) %5, i64 noundef 0)
  %52 = load i64, ptr %51, align 8, !tbaa !8
  %53 = call noundef nonnull align 8 dereferenceable(8) ptr @_ZNK5arrow8bit_util13little_endian6detail6ReaderImLm4EEixEm(ptr noundef nonnull align 8 dereferenceable(8) %6, i64 noundef 0)
  %54 = load i64, ptr %53, align 8, !tbaa !8
  %55 = icmp ult i64 %52, %54
  br label %56

56:                                               ; preds = %50, %44
  %57 = phi i1 [ %49, %44 ], [ %55, %50 ]
  br label %58

58:                                               ; preds = %56, %32
  %59 = phi i1 [ %37, %32 ], [ %57, %56 ]
  br label %60

60:                                               ; preds = %58, %20
  %61 = phi i1 [ %25, %20 ], [ %59, %58 ]
  call void @llvm.lifetime.end.p0(i64 8, ptr %6) #12
  call void @llvm.lifetime.end.p0(i64 8, ptr %5) #12
  ret i1 %61
}

; Function Attrs: inlinehint mustprogress nounwind uwtable
define linkonce_odr void @_ZN5arrow15BasicDecimal256CI2NS_19GenericBasicDecimalIS0_Li256ELi4EEEIiiEET_(ptr noundef nonnull align 8 dereferenceable(32) %0, i32 noundef %1) unnamed_addr #3 comdat align 2 {
  %3 = alloca ptr, align 8
  %4 = alloca i32, align 4
  store ptr %0, ptr %3, align 8, !tbaa !237
  store i32 %1, ptr %4, align 4, !tbaa !30
  %5 = load ptr, ptr %3, align 8
  %6 = load i32, ptr %4, align 4, !tbaa !30
  call void @_ZN5arrow19GenericBasicDecimalINS_15BasicDecimal256ELi256ELi4EEC2IiiEET_(ptr noundef nonnull align 8 dereferenceable(32) %5, i32 noundef %6) #12
  ret void
}

; Function Attrs: mustprogress uwtable
define noundef nonnull align 8 dereferenceable(32) ptr @_ZN5arrow15BasicDecimal2563AbsEv(ptr noundef nonnull align 8 dereferenceable(32) %0) #6 align 2 {
  %2 = alloca ptr, align 8
  %3 = alloca %"class.arrow::BasicDecimal256", align 8
  store ptr %0, ptr %2, align 8, !tbaa !237
  %4 = load ptr, ptr %2, align 8
  call void @llvm.lifetime.start.p0(i64 32, ptr %3) #12
  call void @_ZN5arrow15BasicDecimal256CI2NS_19GenericBasicDecimalIS0_Li256ELi4EEEIiiEET_(ptr noundef nonnull align 8 dereferenceable(32) %3, i32 noundef 0) #12
  %5 = call noundef zeroext i1 @_ZN5arrowltERKNS_15BasicDecimal256ES2_(ptr noundef nonnull align 8 dereferenceable(32) %4, ptr noundef nonnull align 8 dereferenceable(32) %3)
  br i1 %5, label %6, label %8

6:                                                ; preds = %1
  %7 = call noundef nonnull align 8 dereferenceable(32) ptr @_ZN5arrow15BasicDecimal2566NegateEv(ptr noundef nonnull align 8 dereferenceable(32) %4)
  br label %9

8:                                                ; preds = %1
  br label %9

9:                                                ; preds = %8, %6
  %10 = phi ptr [ %7, %6 ], [ %4, %8 ]
  call void @llvm.lifetime.end.p0(i64 32, ptr %3) #12
  ret ptr %10
}

; Function Attrs: mustprogress uwtable
define void @_ZN5arrow15BasicDecimal2563AbsERKS0_(ptr dead_on_unwind noalias writable sret(%"class.arrow::BasicDecimal256") align 8 %0, ptr noundef nonnull align 8 dereferenceable(32) %1) #6 align 2 {
  %3 = alloca ptr, align 8
  %4 = alloca %"class.arrow::BasicDecimal256", align 8
  store ptr %1, ptr %3, align 8, !tbaa !237
  call void @llvm.lifetime.start.p0(i64 32, ptr %4) #12
  %5 = load ptr, ptr %3, align 8, !tbaa !237
  call void @llvm.memcpy.p0.p0.i64(ptr align 8 %4, ptr align 8 %5, i64 32, i1 false)
  %6 = call noundef nonnull align 8 dereferenceable(32) ptr @_ZN5arrow15BasicDecimal2563AbsEv(ptr noundef nonnull align 8 dereferenceable(32) %4)
  call void @llvm.memcpy.p0.p0.i64(ptr align 8 %0, ptr align 8 %6, i64 32, i1 false)
  call void @llvm.lifetime.end.p0(i64 32, ptr %4) #12
  ret void
}