; Function Attrs: mustprogress nofree norecurse nosync nounwind memory(argmem: readwrite) uwtable
define void @_ZN5arrow15BasicDecimal2563AbsERKS0_(ptr dead_on_unwind noalias writable writeonly sret(%"class.arrow::BasicDecimal256") align 8 captures(none) %0, ptr noundef nonnull readonly align 8 captures(none) dereferenceable(32) %1) local_unnamed_addr #8 align 2 personality ptr @__gxx_personality_v0 {
  %3 = alloca %"class.arrow::BasicDecimal256", align 8
  call void @llvm.lifetime.start.p0(i64 32, ptr nonnull %3) #15
  call void @llvm.memcpy.p0.p0.i64(ptr noundef nonnull align 8 dereferenceable(32) %3, ptr noundef nonnull align 8 dereferenceable(32) %1, i64 32, i1 false)
  %4 = getelementptr inbounds nuw i8, ptr %3, i64 24
  %5 = load i64, ptr %4, align 8, !tbaa !7
  %6 = icmp slt i64 %5, 0
  br i1 %6, label %.preheader.i, label %_ZN5arrow15BasicDecimal2563AbsEv.exit

.preheader.i:                                     ; preds = %2, %.preheader.i
  %.010.i.i = phi i64 [ %13, %.preheader.i ], [ 1, %2 ]
  %.089.i.i = phi i64 [ %14, %.preheader.i ], [ 0, %2 ]
  %7 = getelementptr inbounds nuw [4 x i64], ptr %3, i64 0, i64 %.089.i.i
  %8 = load i64, ptr %7, align 8, !tbaa !7
  %9 = xor i64 %8, -1
  %10 = add i64 %.010.i.i, %9
  store i64 %10, ptr %7, align 8, !tbaa !7
  %11 = icmp eq i64 %10, 0
  %12 = and i64 %.010.i.i, 1
  %13 = select i1 %11, i64 %12, i64 0
  %14 = add nuw nsw i64 %.089.i.i, 1
  %exitcond.not.i.i = icmp eq i64 %14, 4
  br i1 %exitcond.not.i.i, label %_ZN5arrow15BasicDecimal2563AbsEv.exit, label %.preheader.i, !llvm.loop !29

_ZN5arrow15BasicDecimal2563AbsEv.exit:            ; preds = %.preheader.i, %2
  call void @llvm.memcpy.p0.p0.i64(ptr noundef nonnull align 8 dereferenceable(32) %0, ptr noundef nonnull align 8 dereferenceable(32) %3, i64 32, i1 false)
  call void @llvm.lifetime.end.p0(i64 32, ptr nonnull %3) #15
  ret void
}